
 Start  Stop   Length Name               Class

 00000H 01096H 01097H _TEXT              CODE
 01097H 01097H 00000H ZDRAVO_TEXT        CODE
 010A0H 010A0H 00000H _FARDATA           FAR_DATA
 010A0H 010A0H 00000H _FARBSS            FAR_BSS
 010A0H 010A0H 00000H _OVERLAY_          OVRINFO
 010A0H 010A0H 00000H _1STUB_            STUBSEG
 010A0H 0135FH 002C0H _DATA              DATA
 01360H 01360H 00000H _CVTSEG            DATA
 01360H 01360H 00000H _SCNSEG            DATA
 01360H 01360H 00000H _CONST             CONST
 01360H 01365H 00006H _INIT_             INITDATA
 01366H 01366H 00000H _INITEND_          INITDATA
 01366H 01366H 00000H _EXIT_             EXITDATA
 01366H 01366H 00000H _EXITEND_          EXITDATA
 01366H 013E5H 00080H _BSS               BSS
 013E6H 013E6H 00000H _BSSEND            BSSEND
 013F0H 0146FH 00080H _STACK             STACK

  Address         Publics by Name

 010A:0000       DATASEG@
 0000:0291       DGROUP@
 0000:0358       F_LXLSH@
 0000:0379       F_PADD@
 0000:03A8       F_PSUB@
 0000:0358       LXLSH@
 0000:0355       N_LXLSH@
 0000:0376       N_PADD@
 0000:045B       N_PCMP@
 0000:03A5       N_PSUB@
 0000:0379       PADD@
 0000:03A8       PSUB@
 0000:027A       _ABORT
 0000:0295       _ATEXIT
 010A:007F       _ERRNO
 0000:031A       _EXIT
 0000:0676       _FARFREE
 0000:078A       _FARMALLOC
 0000:08EE       _FARREALLOC
 0000:0AC4       _FFLUSH
 0000:0B91       _FLUSHALL
 0000:0676       _FREE
 0000:0C55       _FSEEK
 0000:0CD5       _FTELL
 0000:0421       _ISATTY
 0000:0432       _LSEEK
 0000:0780       _MALLOC
 0000:08E7       _REALLOC
 0000:0AA8       _SETBLOCK
 0000:0DB5       _SETVBUF
 0000:1000  Abs  __AHINCR
 0000:000C  Abs  __AHSHIFT
 010A:0094       __ATEXITCNT
 010A:02C6       __ATEXITTBL
 0000:09DE       __BRK
 010A:008B       __BRKLVL
 010A:006B       __C0ARGC
 010A:006D       __C0ARGV
 010A:0071       __C0ENVIRON
 0000:033B       __CEXIT
 0000:016A       __CHECKNULL
 0000:0157       __CLEANUP
 0000:0349       __C_EXIT
 010A:025C       __DOSERRNO
 0000:040F       __DOSERROR
 010A:025E       __DOSERRORTOSV
 010A:0075       __ENVLNG
 010A:0077       __ENVSEG
 010A:0079       __ENVSIZE
 0000:0329       __EXIT
 010A:0096       __EXITBUF
 010A:009A       __EXITFOPEN
 010A:009E       __EXITOPEN
 010A:0087       __HEAPBASE
 010A:008F       __HEAPTOP
 010A:005B       __INT0VECTOR
 010A:005F       __INT4VECTOR
 010A:0063       __INT5VECTOR
 010A:0067       __INT6VECTOR
 0000:03D6       __IOERROR
 0000:0293       __MMODEL
 010A:0232       __NFILE
 010A:0234       __OPENFD
 010A:007D       __OSMAJOR
 010A:007E       __OSMINOR
 010A:007D       __OSVERSION
 010A:007B       __PSP
 010A:02C0       __REALCVTVECTOR
 0000:01C0       __RESTOREZERO
 0000:0A1D       __SBRK
 010A:02C0       __SCANTODVECTOR
 0000:047C       __SETUPIO
 010A:0081       __STARTTIME
 010A:02B8       __STKLEN
 010A:00A2       __STREAMS
 0000:016B       __TERMINATE
 010A:007D       __VERSION
 0000:1023       __WRITE
 0000:105F       __XFFLUSH
 010A:0085       ___BRKLVL
 0000:0536       ___FIRST
 0000:0538       ___LAST
 0000:053A       ___ROVER
 0000:0ED2       ___WRITE

  Address         Publics by Value

 0000:000C  Abs  __AHSHIFT
 0000:0157       __CLEANUP
 0000:016A       __CHECKNULL
 0000:016B       __TERMINATE
 0000:01C0       __RESTOREZERO
 0000:027A       _ABORT
 0000:0291       DGROUP@
 0000:0293       __MMODEL
 0000:0295       _ATEXIT
 0000:031A       _EXIT
 0000:0329       __EXIT
 0000:033B       __CEXIT
 0000:0349       __C_EXIT
 0000:0355       N_LXLSH@
 0000:0358       LXLSH@
 0000:0358       F_LXLSH@
 0000:0376       N_PADD@
 0000:0379       F_PADD@
 0000:0379       PADD@
 0000:03A5       N_PSUB@
 0000:03A8       F_PSUB@
 0000:03A8       PSUB@
 0000:03D6       __IOERROR
 0000:040F       __DOSERROR
 0000:0421       _ISATTY
 0000:0432       _LSEEK
 0000:045B       N_PCMP@
 0000:047C       __SETUPIO
 0000:0536       ___FIRST
 0000:0538       ___LAST
 0000:053A       ___ROVER
 0000:0676       _FREE
 0000:0676       _FARFREE
 0000:0780       _MALLOC
 0000:078A       _FARMALLOC
 0000:08E7       _REALLOC
 0000:08EE       _FARREALLOC
 0000:09DE       __BRK
 0000:0A1D       __SBRK
 0000:0AA8       _SETBLOCK
 0000:0AC4       _FFLUSH
 0000:0B91       _FLUSHALL
 0000:0C55       _FSEEK
 0000:0CD5       _FTELL
 0000:0DB5       _SETVBUF
 0000:0ED2       ___WRITE
 0000:1000  Abs  __AHINCR
 0000:1023       __WRITE
 0000:105F       __XFFLUSH
 010A:0000       DATASEG@
 010A:005B       __INT0VECTOR
 010A:005F       __INT4VECTOR
 010A:0063       __INT5VECTOR
 010A:0067       __INT6VECTOR
 010A:006B       __C0ARGC
 010A:006D       __C0ARGV
 010A:0071       __C0ENVIRON
 010A:0075       __ENVLNG
 010A:0077       __ENVSEG
 010A:0079       __ENVSIZE
 010A:007B       __PSP
 010A:007D       __OSVERSION
 010A:007D       __OSMAJOR
 010A:007D       __VERSION
 010A:007E       __OSMINOR
 010A:007F       _ERRNO
 010A:0081       __STARTTIME
 010A:0085       ___BRKLVL
 010A:0087       __HEAPBASE
 010A:008B       __BRKLVL
 010A:008F       __HEAPTOP
 010A:0094       __ATEXITCNT
 010A:0096       __EXITBUF
 010A:009A       __EXITFOPEN
 010A:009E       __EXITOPEN
 010A:00A2       __STREAMS
 010A:0232       __NFILE
 010A:0234       __OPENFD
 010A:025C       __DOSERRNO
 010A:025E       __DOSERRORTOSV
 010A:02B8       __STKLEN
 010A:02C0       __SCANTODVECTOR
 010A:02C0       __REALCVTVECTOR
 010A:02C6       __ATEXITTBL

Error: Undefined symbol _MAIN in module C0.ASM
Program entry point at 0000:0000

